; Function Attrs: mustprogress uwtable
define internal noundef i32 @_ZL15cmCommandExistsPvPKc(ptr noundef nonnull %0, ptr noundef %1) #6 personality ptr @__gxx_personality_v0 {
  %3 = alloca %"class.std::function.263", align 8
  %4 = alloca %"class.std::__cxx11::basic_string", align 8
  %5 = alloca %"class.std::allocator", align 1
  %6 = tail call noundef ptr @_ZNK10cmMakefile8GetStateEv(ptr noundef nonnull align 8 dereferenceable(3520) %0)
  call void @_ZNSaIcEC1Ev(ptr noundef nonnull align 1 dereferenceable(1) %5) #30
  %7 = invoke noundef ptr @_ZNSt7__cxx1112basic_stringIcSt11char_traitsIcESaIcEE13_M_local_dataEv(ptr noundef nonnull align 8 dereferenceable(32) %4)
          to label %.noexc unwind label %25

.noexc:                                           ; preds = %2
  invoke void @_ZNSt7__cxx1112basic_stringIcSt11char_traitsIcESaIcEE12_Alloc_hiderC1EPcRKS3_(ptr noundef nonnull align 8 dereferenceable(8) %4, ptr noundef %7, ptr noundef nonnull align 1 dereferenceable(1) %5)
          to label %.noexc6 unwind label %25

.noexc6:                                          ; preds = %.noexc
  %8 = icmp eq ptr %1, null
  br i1 %8, label %9, label %13

9:                                                ; preds = %.noexc6
  invoke void @_ZSt19__throw_logic_errorPKc(ptr noundef nonnull @.str.14) #35
          to label %10 unwind label %11

10:                                               ; preds = %9
  unreachable

11:                                               ; preds = %13, %9
  %12 = landingpad { ptr, i32 }
          cleanup
  call void @_ZNSaIcED2Ev(ptr noundef nonnull align 1 dereferenceable(1) %4) #30
  br label %.body

13:                                               ; preds = %.noexc6
  %14 = call noundef i64 @strlen(ptr noundef nonnull dereferenceable(1) %1) #30
  %15 = getelementptr inbounds i8, ptr %1, i64 %14
  invoke void @_ZNSt7__cxx1112basic_stringIcSt11char_traitsIcESaIcEE12_M_constructIPKcEEvT_S8_St20forward_iterator_tag(ptr noundef nonnull align 8 dereferenceable(32) %4, ptr noundef nonnull %1, ptr noundef nonnull %15)
          to label %_ZNSt7__cxx1112basic_stringIcSt11char_traitsIcESaIcEEC2IS3_EEPKcRKS3_.exit unwind label %11

_ZNSt7__cxx1112basic_stringIcSt11char_traitsIcESaIcEEC2IS3_EEPKcRKS3_.exit: ; preds = %13
  invoke void @_ZNK7cmState10GetCommandERKNSt7__cxx1112basic_stringIcSt11char_traitsIcESaIcEEE(ptr dead_on_unwind nonnull writable sret(%"class.std::function.263") align 8 %3, ptr noundef nonnull align 8 dereferenceable(705) %6, ptr noundef nonnull align 8 dereferenceable(32) %4)
          to label %16 unwind label %27

16:                                               ; preds = %_ZNSt7__cxx1112basic_stringIcSt11char_traitsIcESaIcEEC2IS3_EEPKcRKS3_.exit
  %17 = getelementptr inbounds i8, ptr %3, i64 16
  %18 = load ptr, ptr %17, align 8
  %.not.i.i7 = icmp eq ptr %18, null
  br i1 %.not.i.i7, label %_ZNSt8functionIFbRKSt6vectorI18cmListFileArgumentSaIS1_EER17cmExecutionStatusEED2Ev.exit, label %19

19:                                               ; preds = %16
  %20 = invoke noundef zeroext i1 %18(ptr noundef nonnull align 8 dereferenceable(16) %3, ptr noundef nonnull align 8 dereferenceable(16) %3, i32 noundef 3)
          to label %_ZNSt8functionIFbRKSt6vectorI18cmListFileArgumentSaIS1_EER17cmExecutionStatusEED2Ev.exit unwind label %21

21:                                               ; preds = %19
  %22 = landingpad { ptr, i32 }
          catch ptr null
  %23 = extractvalue { ptr, i32 } %22, 0
  call void @__clang_call_terminate(ptr %23) #28
  unreachable

_ZNSt8functionIFbRKSt6vectorI18cmListFileArgumentSaIS1_EER17cmExecutionStatusEED2Ev.exit: ; preds = %16, %19
  %.not.i.i = icmp ne ptr %18, null
  %24 = zext i1 %.not.i.i to i32
  call void @_ZNSt7__cxx1112basic_stringIcSt11char_traitsIcESaIcEED1Ev(ptr noundef nonnull align 8 dereferenceable(32) %4) #30
  call void @_ZNSaIcED1Ev(ptr noundef nonnull align 1 dereferenceable(1) %5) #30
  ret i32 %24

25:                                               ; preds = %.noexc, %2
  %26 = landingpad { ptr, i32 }
          cleanup
  br label %.body

27:                                               ; preds = %_ZNSt7__cxx1112basic_stringIcSt11char_traitsIcESaIcEEC2IS3_EEPKcRKS3_.exit
  %28 = landingpad { ptr, i32 }
          cleanup
  call void @_ZNSt7__cxx1112basic_stringIcSt11char_traitsIcESaIcEED1Ev(ptr noundef nonnull align 8 dereferenceable(32) %4) #30
  br label %.body

.body:                                            ; preds = %25, %11, %27
  %.pn = phi { ptr, i32 } [ %28, %27 ], [ %26, %25 ], [ %12, %11 ]
  call void @_ZNSaIcED1Ev(ptr noundef nonnull align 1 dereferenceable(1) %5) #30
  resume { ptr, i32 } %.pn
}